target datalayout = "e-m:e-p270:32:32-p271:32:32-p272:64:64-i64:64-i128:128-f80:128-n8:16:32:64-S128"
target triple = "x86_64-pc-linux-gnu"

%struct.CXzStream = type { i16, i64, i64, ptr, i64 }
%struct.CXzBlockSizes = type { i64, i64 }

; Function Attrs: nounwind uwtable
define i64 @Xz_GetPackSize(ptr noundef %0) #0 {
  %2 = alloca i64, align 8
  %3 = alloca ptr, align 8
  %4 = alloca i64, align 8
  %5 = alloca i64, align 8
  %6 = alloca i64, align 8
  store ptr %0, ptr %3, align 8
  store i64 0, ptr %4, align 8
  store i64 0, ptr %5, align 8
  br label %7

7:                                                ; preds = %31, %1
  %8 = load i64, ptr %5, align 8
  %9 = load ptr, ptr %3, align 8
  %10 = getelementptr inbounds %struct.CXzStream, ptr %9, i32 0, i32 1
  %11 = load i64, ptr %10, align 8
  %12 = icmp ult i64 %8, %11
  br i1 %12, label %13, label %34

13:                                               ; preds = %7
  %14 = load i64, ptr %4, align 8
  %15 = load ptr, ptr %3, align 8
  %16 = getelementptr inbounds %struct.CXzStream, ptr %15, i32 0, i32 3
  %17 = load ptr, ptr %16, align 8
  %18 = load i64, ptr %5, align 8
  %19 = getelementptr inbounds %struct.CXzBlockSizes, ptr %17, i64 %18
  %20 = getelementptr inbounds %struct.CXzBlockSizes, ptr %19, i32 0, i32 1
  %21 = load i64, ptr %20, align 8
  %22 = add i64 %21, 3
  %23 = and i64 %22, -4
  %24 = add i64 %14, %23
  store i64 %24, ptr %6, align 8
  %25 = load i64, ptr %6, align 8
  %26 = load i64, ptr %4, align 8
  %27 = icmp ult i64 %25, %26
  br i1 %27, label %28, label %29

28:                                               ; preds = %13
  store i64 -1, ptr %2, align 8
  br label %36

29:                                               ; preds = %13
  %30 = load i64, ptr %6, align 8
  store i64 %30, ptr %4, align 8
  br label %31

31:                                               ; preds = %29
  %32 = load i64, ptr %5, align 8
  %33 = add i64 %32, 1
  store i64 %33, ptr %5, align 8
  br label %7

34:                                               ; preds = %7
  %35 = load i64, ptr %4, align 8
  store i64 %35, ptr %2, align 8
  br label %36

36:                                               ; preds = %34, %28
  %37 = load i64, ptr %2, align 8
  ret i64 %37
}